target datalayout = "e-m:e-p270:32:32-p271:32:32-p272:64:64-i64:64-i128:128-f80:128-n8:16:32:64-S128"
target triple = "x86_64-pc-linux-gnu"

%struct.If_LibLut_t_ = type { ptr, i32, i32, [33 x float], [33 x [33 x float]] }

; Function Attrs: nounwind uwtable
define i32 @If_LibLutDelaysAreDiscrete(ptr noundef %0) #0 {
  %2 = alloca i32, align 4
  %3 = alloca ptr, align 8
  %4 = alloca float, align 4
  %5 = alloca i32, align 4
  %6 = alloca i32, align 4
  store ptr %0, ptr %3, align 8, !tbaa !15
  call void @llvm.lifetime.start.p0(i64 4, ptr %4) #12
  call void @llvm.lifetime.start.p0(i64 4, ptr %5) #12
  store i32 1, ptr %5, align 4, !tbaa !17
  br label %7

7:                                                ; preds = %28, %1
  %8 = load i32, ptr %5, align 4, !tbaa !17
  %9 = load ptr, ptr %3, align 8, !tbaa !15
  %10 = getelementptr inbounds nuw %struct.If_LibLut_t_, ptr %9, i32 0, i32 1
  %11 = load i32, ptr %10, align 8, !tbaa !26
  %12 = icmp sle i32 %8, %11
  br i1 %12, label %13, label %31

13:                                               ; preds = %7
  %14 = load ptr, ptr %3, align 8, !tbaa !15
  %15 = getelementptr inbounds nuw %struct.If_LibLut_t_, ptr %14, i32 0, i32 4
  %16 = load i32, ptr %5, align 4, !tbaa !17
  %17 = sext i32 %16 to i64
  %18 = getelementptr inbounds [33 x [33 x float]], ptr %15, i64 0, i64 %17
  %19 = getelementptr inbounds [33 x float], ptr %18, i64 0, i64 0
  %20 = load float, ptr %19, align 4, !tbaa !21
  store float %20, ptr %4, align 4, !tbaa !21
  %21 = load float, ptr %4, align 4, !tbaa !21
  %22 = fptosi float %21 to i32
  %23 = sitofp i32 %22 to float
  %24 = load float, ptr %4, align 4, !tbaa !21
  %25 = fcmp une float %23, %24
  br i1 %25, label %26, label %27

26:                                               ; preds = %13
  store i32 0, ptr %2, align 4
  store i32 1, ptr %6, align 4
  br label %32

27:                                               ; preds = %13
  br label %28

28:                                               ; preds = %27
  %29 = load i32, ptr %5, align 4, !tbaa !17
  %30 = add nsw i32 %29, 1
  store i32 %30, ptr %5, align 4, !tbaa !17
  br label %7, !llvm.loop !48

31:                                               ; preds = %7
  store i32 1, ptr %2, align 4
  store i32 1, ptr %6, align 4
  br label %32

32:                                               ; preds = %31, %26
  call void @llvm.lifetime.end.p0(i64 4, ptr %5) #12
  call void @llvm.lifetime.end.p0(i64 4, ptr %4) #12
  %33 = load i32, ptr %2, align 4
  ret i32 %33
}