; Function Attrs: nofree norecurse nosync nounwind memory(argmem: read) uwtable
define range(i32 0, 2) i32 @If_LibLutDelaysAreDiscrete(ptr noundef readonly captures(none) %0) local_unnamed_addr #11 {
  %2 = getelementptr inbounds nuw i8, ptr %0, i64 148
  %3 = getelementptr inbounds nuw i8, ptr %0, i64 8
  %4 = load i32, ptr %3, align 8, !tbaa !15
  %.not8 = icmp slt i32 %4, 1
  br i1 %.not8, label %._crit_edge, label %.lr.ph.preheader

.lr.ph.preheader:                                 ; preds = %1
  %5 = add nuw i32 %4, 1
  %wide.trip.count = zext i32 %5 to i64
  br label %.lr.ph

6:                                                ; preds = %.lr.ph
  %indvars.iv.next = add nuw nsw i64 %indvars.iv, 1
  %exitcond.not = icmp eq i64 %indvars.iv.next, %wide.trip.count
  br i1 %exitcond.not, label %._crit_edge, label %.lr.ph, !llvm.loop !43

.lr.ph:                                           ; preds = %.lr.ph.preheader, %6
  %indvars.iv = phi i64 [ 1, %.lr.ph.preheader ], [ %indvars.iv.next, %6 ]
  %7 = getelementptr inbounds nuw [33 x [33 x float]], ptr %2, i64 0, i64 %indvars.iv
  %8 = load float, ptr %7, align 4, !tbaa !18
  %9 = fptosi float %8 to i32
  %10 = sitofp i32 %9 to float
  %11 = fcmp une float %8, %10
  br i1 %11, label %._crit_edge, label %6

._crit_edge:                                      ; preds = %.lr.ph, %6, %1
  %.07 = phi i32 [ 1, %1 ], [ 1, %6 ], [ 0, %.lr.ph ]
  ret i32 %.07
}